target datalayout = "e-m:e-p270:32:32-p271:32:32-p272:64:64-i64:64-i128:128-f80:128-n8:16:32:64-S128"
target triple = "x86_64-pc-linux-gnu"

%struct.Py_buffer = type { ptr, ptr, i64, i64, i32, i32, ptr, ptr, ptr, ptr, ptr }

@.str.1 = private unnamed_addr constant [8 x i8] c"adler32\00", align 1

; Function Attrs: nounwind uwtable
define internal ptr @zlib_adler32_impl(ptr noundef %0, ptr noundef %1, i32 noundef %2) #0 {
  %4 = alloca ptr, align 8
  %5 = alloca ptr, align 8
  %6 = alloca i32, align 4
  %7 = alloca ptr, align 8
  %8 = alloca i64, align 8
  %9 = alloca ptr, align 8
  store ptr %0, ptr %4, align 8, !tbaa !3
  store ptr %1, ptr %5, align 8, !tbaa !8
  store i32 %2, ptr %6, align 4, !tbaa !12
  %10 = load ptr, ptr %5, align 8, !tbaa !8
  %11 = getelementptr inbounds nuw %struct.Py_buffer, ptr %10, i32 0, i32 2
  %12 = load i64, ptr %11, align 8, !tbaa !28
  %13 = icmp sgt i64 %12, 5120
  br i1 %13, label %14, label %44

14:                                               ; preds = %3
  call void @llvm.lifetime.start.p0(i64 8, ptr %7) #7
  %15 = load ptr, ptr %5, align 8, !tbaa !8
  %16 = getelementptr inbounds nuw %struct.Py_buffer, ptr %15, i32 0, i32 0
  %17 = load ptr, ptr %16, align 8, !tbaa !29
  store ptr %17, ptr %7, align 8, !tbaa !30
  call void @llvm.lifetime.start.p0(i64 8, ptr %8) #7
  %18 = load ptr, ptr %5, align 8, !tbaa !8
  %19 = getelementptr inbounds nuw %struct.Py_buffer, ptr %18, i32 0, i32 2
  %20 = load i64, ptr %19, align 8, !tbaa !28
  store i64 %20, ptr %8, align 8, !tbaa !22
  call void @llvm.lifetime.start.p0(i64 8, ptr %9) #7
  %21 = call ptr @PyEval_SaveThread()
  store ptr %21, ptr %9, align 8, !tbaa !31
  br label %22

22:                                               ; preds = %25, %14
  %23 = load i64, ptr %8, align 8, !tbaa !22
  %24 = icmp ugt i64 %23, 4294967295
  br i1 %24, label %25, label %35

25:                                               ; preds = %22
  %26 = load i32, ptr %6, align 4, !tbaa !12
  %27 = zext i32 %26 to i64
  %28 = load ptr, ptr %7, align 8, !tbaa !30
  %29 = call i64 @adler32(i64 noundef %27, ptr noundef %28, i32 noundef -1)
  %30 = trunc i64 %29 to i32
  store i32 %30, ptr %6, align 4, !tbaa !12
  %31 = load ptr, ptr %7, align 8, !tbaa !30
  %32 = getelementptr i8, ptr %31, i64 4294967295
  store ptr %32, ptr %7, align 8, !tbaa !30
  %33 = load i64, ptr %8, align 8, !tbaa !22
  %34 = sub i64 %33, 4294967295
  store i64 %34, ptr %8, align 8, !tbaa !22
  br label %22, !llvm.loop !33

35:                                               ; preds = %22
  %36 = load i32, ptr %6, align 4, !tbaa !12
  %37 = zext i32 %36 to i64
  %38 = load ptr, ptr %7, align 8, !tbaa !30
  %39 = load i64, ptr %8, align 8, !tbaa !22
  %40 = trunc i64 %39 to i32
  %41 = call i64 @adler32(i64 noundef %37, ptr noundef %38, i32 noundef %40)
  %42 = trunc i64 %41 to i32
  store i32 %42, ptr %6, align 4, !tbaa !12
  %43 = load ptr, ptr %9, align 8, !tbaa !31
  call void @PyEval_RestoreThread(ptr noundef %43)
  call void @llvm.lifetime.end.p0(i64 8, ptr %9) #7
  call void @llvm.lifetime.end.p0(i64 8, ptr %8) #7
  call void @llvm.lifetime.end.p0(i64 8, ptr %7) #7
  br label %56

44:                                               ; preds = %3
  %45 = load i32, ptr %6, align 4, !tbaa !12
  %46 = zext i32 %45 to i64
  %47 = load ptr, ptr %5, align 8, !tbaa !8
  %48 = getelementptr inbounds nuw %struct.Py_buffer, ptr %47, i32 0, i32 0
  %49 = load ptr, ptr %48, align 8, !tbaa !29
  %50 = load ptr, ptr %5, align 8, !tbaa !8
  %51 = getelementptr inbounds nuw %struct.Py_buffer, ptr %50, i32 0, i32 2
  %52 = load i64, ptr %51, align 8, !tbaa !28
  %53 = trunc i64 %52 to i32
  %54 = call i64 @adler32(i64 noundef %46, ptr noundef %49, i32 noundef %53)
  %55 = trunc i64 %54 to i32
  store i32 %55, ptr %6, align 4, !tbaa !12
  br label %56

56:                                               ; preds = %44, %35
  %57 = load i32, ptr %6, align 4, !tbaa !12
  %58 = and i32 %57, -1
  %59 = zext i32 %58 to i64
  %60 = call ptr @PyLong_FromUnsignedLong(i64 noundef %59)
  ret ptr %60
}

; Function Attrs: nounwind uwtable
define internal ptr @zlib_adler32(ptr noundef %0, ptr noundef %1, i64 noundef %2) #0 {
  %4 = alloca ptr, align 8
  %5 = alloca ptr, align 8
  %6 = alloca i64, align 8
  %7 = alloca ptr, align 8
  %8 = alloca %struct.Py_buffer, align 8
  %9 = alloca i32, align 4
  store ptr %0, ptr %4, align 8, !tbaa !3
  store ptr %1, ptr %5, align 8, !tbaa !20
  store i64 %2, ptr %6, align 8, !tbaa !22
  call void @llvm.lifetime.start.p0(i64 8, ptr %7) #7
  store ptr null, ptr %7, align 8, !tbaa !3
  call void @llvm.lifetime.start.p0(i64 80, ptr %8) #7
  call void @llvm.memset.p0.i64(ptr align 8 %8, i8 0, i64 80, i1 false)
  call void @llvm.lifetime.start.p0(i64 4, ptr %9) #7
  store i32 1, ptr %9, align 4, !tbaa !12
  %10 = load i64, ptr %6, align 8, !tbaa !22
  %11 = icmp sle i64 1, %10
  br i1 %11, label %12, label %15

12:                                               ; preds = %3
  %13 = load i64, ptr %6, align 8, !tbaa !22
  %14 = icmp sle i64 %13, 2
  br i1 %14, label %20, label %15

15:                                               ; preds = %12, %3
  %16 = load i64, ptr %6, align 8, !tbaa !22
  %17 = call i32 @_PyArg_CheckPositional(ptr noundef @.str.1, i64 noundef %16, i64 noundef 1, i64 noundef 2)
  %18 = icmp ne i32 %17, 0
  br i1 %18, label %20, label %19

19:                                               ; preds = %15
  br label %48

20:                                               ; preds = %15, %12
  %21 = load ptr, ptr %5, align 8, !tbaa !20
  %22 = getelementptr ptr, ptr %21, i64 0
  %23 = load ptr, ptr %22, align 8, !tbaa !3
  %24 = call i32 @PyObject_GetBuffer(ptr noundef %23, ptr noundef %8, i32 noundef 0)
  %25 = icmp ne i32 %24, 0
  br i1 %25, label %26, label %27

26:                                               ; preds = %20
  br label %48

27:                                               ; preds = %20
  %28 = load i64, ptr %6, align 8, !tbaa !22
  %29 = icmp slt i64 %28, 2
  br i1 %29, label %30, label %31

30:                                               ; preds = %27
  br label %44

31:                                               ; preds = %27
  %32 = load ptr, ptr %5, align 8, !tbaa !20
  %33 = getelementptr ptr, ptr %32, i64 1
  %34 = load ptr, ptr %33, align 8, !tbaa !3
  %35 = call i64 @PyLong_AsUnsignedLongMask(ptr noundef %34)
  %36 = trunc i64 %35 to i32
  store i32 %36, ptr %9, align 4, !tbaa !12
  %37 = load i32, ptr %9, align 4, !tbaa !12
  %38 = icmp eq i32 %37, -1
  br i1 %38, label %39, label %43

39:                                               ; preds = %31
  %40 = call ptr @PyErr_Occurred()
  %41 = icmp ne ptr %40, null
  br i1 %41, label %42, label %43

42:                                               ; preds = %39
  br label %48

43:                                               ; preds = %39, %31
  br label %44

44:                                               ; preds = %43, %30
  %45 = load ptr, ptr %4, align 8, !tbaa !3
  %46 = load i32, ptr %9, align 4, !tbaa !12
  %47 = call ptr @zlib_adler32_impl(ptr noundef %45, ptr noundef %8, i32 noundef %46)
  store ptr %47, ptr %7, align 8, !tbaa !3
  br label %48

48:                                               ; preds = %44, %42, %26, %19
  %49 = getelementptr inbounds nuw %struct.Py_buffer, ptr %8, i32 0, i32 1
  %50 = load ptr, ptr %49, align 8, !tbaa !24
  %51 = icmp ne ptr %50, null
  br i1 %51, label %52, label %53

52:                                               ; preds = %48
  call void @PyBuffer_Release(ptr noundef %8)
  br label %53

53:                                               ; preds = %52, %48
  %54 = load ptr, ptr %7, align 8, !tbaa !3
  call void @llvm.lifetime.end.p0(i64 4, ptr %9) #7
  call void @llvm.lifetime.end.p0(i64 80, ptr %8) #7
  call void @llvm.lifetime.end.p0(i64 8, ptr %7) #7
  ret ptr %54
}