; Function Attrs: nounwind uwtable
define internal ptr @zlib_adler32(ptr readnone captures(none) %0, ptr noundef readonly captures(none) %1, i64 noundef %2) #0 {
  %4 = alloca %struct.Py_buffer, align 8
  call void @llvm.lifetime.start.p0(i64 80, ptr nonnull %4) #7
  call void @llvm.memset.p0.i64(ptr noundef nonnull align 8 dereferenceable(80) %4, i8 0, i64 80, i1 false)
  %5 = add i64 %2, -1
  %or.cond = icmp ult i64 %5, 2
  br i1 %or.cond, label %8, label %6

6:                                                ; preds = %3
  %7 = tail call i32 @_PyArg_CheckPositional(ptr noundef nonnull @.str.1, i64 noundef %2, i64 noundef 1, i64 noundef 2) #7
  %.not = icmp eq i32 %7, 0
  br i1 %.not, label %42, label %8

8:                                                ; preds = %3, %6
  %9 = load ptr, ptr %1, align 8, !tbaa !15
  %10 = call i32 @PyObject_GetBuffer(ptr noundef %9, ptr noundef nonnull %4, i32 noundef 0) #7
  %.not12 = icmp eq i32 %10, 0
  br i1 %.not12, label %11, label %42

11:                                               ; preds = %8
  %12 = icmp slt i64 %2, 2
  br i1 %12, label %21, label %13

13:                                               ; preds = %11
  %14 = getelementptr i8, ptr %1, i64 8
  %15 = load ptr, ptr %14, align 8, !tbaa !15
  %16 = call i64 @PyLong_AsUnsignedLongMask(ptr noundef %15) #7
  %17 = trunc i64 %16 to i32
  %18 = icmp eq i32 %17, -1
  br i1 %18, label %19, label %21

19:                                               ; preds = %13
  %20 = call ptr @PyErr_Occurred() #7
  %.not13 = icmp eq ptr %20, null
  br i1 %.not13, label %21, label %42

21:                                               ; preds = %13, %19, %11
  %.0 = phi i32 [ 1, %11 ], [ -1, %19 ], [ %17, %13 ]
  %.val = load ptr, ptr %4, align 8
  %22 = getelementptr inbounds nuw i8, ptr %4, i64 16
  %.val15 = load i64, ptr %22, align 8, !tbaa !16
  %23 = icmp sgt i64 %.val15, 5120
  br i1 %23, label %24, label %36

24:                                               ; preds = %21
  %25 = call ptr @PyEval_SaveThread() #7
  %26 = icmp samesign ugt i64 %.val15, 4294967295
  br i1 %26, label %.lr.ph.i, label %._crit_edge.i

.lr.ph.i:                                         ; preds = %24, %.lr.ph.i
  %.03.i = phi i32 [ %29, %.lr.ph.i ], [ %.0, %24 ]
  %.0152.i = phi i64 [ %31, %.lr.ph.i ], [ %.val15, %24 ]
  %.0161.i = phi ptr [ %30, %.lr.ph.i ], [ %.val, %24 ]
  %27 = zext i32 %.03.i to i64
  %28 = call i64 @adler32(i64 noundef %27, ptr noundef %.0161.i, i32 noundef -1) #7
  %29 = trunc i64 %28 to i32
  %30 = getelementptr i8, ptr %.0161.i, i64 4294967295
  %31 = add nsw i64 %.0152.i, -4294967295
  %32 = icmp ugt i64 %31, 4294967295
  br i1 %32, label %.lr.ph.i, label %._crit_edge.i, !llvm.loop !22

._crit_edge.i:                                    ; preds = %.lr.ph.i, %24
  %.016.lcssa.i = phi ptr [ %.val, %24 ], [ %30, %.lr.ph.i ]
  %.015.lcssa.i = phi i64 [ %.val15, %24 ], [ %31, %.lr.ph.i ]
  %.0.lcssa.i = phi i32 [ %.0, %24 ], [ %29, %.lr.ph.i ]
  %33 = zext i32 %.0.lcssa.i to i64
  %34 = trunc nuw i64 %.015.lcssa.i to i32
  %35 = call i64 @adler32(i64 noundef %33, ptr noundef %.016.lcssa.i, i32 noundef %34) #7
  call void @PyEval_RestoreThread(ptr noundef %25) #7
  br label %zlib_adler32_impl.exit

36:                                               ; preds = %21
  %37 = zext i32 %.0 to i64
  %38 = trunc i64 %.val15 to i32
  %39 = call i64 @adler32(i64 noundef %37, ptr noundef %.val, i32 noundef %38) #7
  br label %zlib_adler32_impl.exit

zlib_adler32_impl.exit:                           ; preds = %._crit_edge.i, %36
  %.1.in.i = phi i64 [ %35, %._crit_edge.i ], [ %39, %36 ]
  %40 = and i64 %.1.in.i, 4294967295
  %41 = call ptr @PyLong_FromUnsignedLong(i64 noundef %40) #7
  br label %42

42:                                               ; preds = %19, %8, %6, %zlib_adler32_impl.exit
  %.010 = phi ptr [ null, %8 ], [ %41, %zlib_adler32_impl.exit ], [ null, %19 ], [ null, %6 ]
  %43 = getelementptr inbounds nuw i8, ptr %4, i64 8
  %44 = load ptr, ptr %43, align 8, !tbaa !24
  %.not14 = icmp eq ptr %44, null
  br i1 %.not14, label %46, label %45

45:                                               ; preds = %42
  call void @PyBuffer_Release(ptr noundef nonnull %4) #7
  br label %46

46:                                               ; preds = %45, %42
  call void @llvm.lifetime.end.p0(i64 80, ptr nonnull %4) #7
  ret ptr %.010
}